; Function Attrs: mustprogress nounwind uwtable
define dso_local void @_ZN4llvm7memprof16RawMemProfReader14readNextRecordERSt4pairImNS0_13MemProfRecordEESt8functionIFKNS0_5FrameEmEE(ptr dead_on_unwind noalias writable sret(%"class.llvm::Error") align 8 %0, ptr noundef nonnull align 8 dereferenceable(416) %1, ptr noundef nonnull align 8 dereferenceable(272) %2, ptr nocapture readnone %3) unnamed_addr #0 align 2 {
  %5 = alloca %"class.std::function.230", align 8
  %6 = getelementptr inbounds nuw i8, ptr %5, i64 16
  %7 = getelementptr inbounds nuw i8, ptr %5, i64 24
  %8 = getelementptr inbounds i8, ptr %5, i64 8
  store i64 0, ptr %8, align 8
  %9 = ptrtoint ptr %1 to i64
  store i64 %9, ptr %5, align 8
  store ptr @"_ZNSt17_Function_handlerIFKN4llvm7memprof5FrameEmEZNS1_16RawMemProfReader14readNextRecordERSt4pairImNS1_13MemProfRecordEESt8functionIS4_EE3$_0E9_M_invokeERKSt9_Any_dataOm", ptr %7, align 8
  store ptr @"_ZNSt17_Function_handlerIFKN4llvm7memprof5FrameEmEZNS1_16RawMemProfReader14readNextRecordERSt4pairImNS1_13MemProfRecordEESt8functionIS4_EE3$_0E10_M_managerERSt9_Any_dataRKSE_St18_Manager_operation", ptr %6, align 8
  call void @_ZN4llvm7memprof13MemProfReader14readNextRecordERSt4pairImNS0_13MemProfRecordEESt8functionIFKNS0_5FrameEmEE(ptr dead_on_unwind writable sret(%"class.llvm::Error") align 8 %0, ptr noundef nonnull align 8 dereferenceable(104) %1, ptr noundef nonnull align 8 dereferenceable(272) %2, ptr noundef nonnull %5)
  %10 = load ptr, ptr %6, align 8
  %.not.i.i = icmp eq ptr %10, null
  br i1 %.not.i.i, label %_ZNSt8functionIFKN4llvm7memprof5FrameEmEED2Ev.exit, label %11

11:                                               ; preds = %4
  %12 = call noundef zeroext i1 %10(ptr noundef nonnull align 8 dereferenceable(16) %5, ptr noundef nonnull align 8 dereferenceable(16) %5, i32 noundef 3) #20
  br label %_ZNSt8functionIFKN4llvm7memprof5FrameEmEED2Ev.exit

_ZNSt8functionIFKN4llvm7memprof5FrameEmEED2Ev.exit: ; preds = %4, %11
  ret void
}